(lp0
(i__main__
template
p1
(dp2
S'name'
p3
VB1\u000a
p4
sS'itemfposx'
p5
(lp6
I26
aI68
aI270
aI307
aI370
aI420
aI269
aI199
aI300
asS'itemfposy'
p7
(lp8
I281
aI280
aI280
aI279
aI279
aI279
aI545
aI154
aI154
asS'itemstype'
p9
(lp10
I1
aI0
aI1
aI1
aI1
aI1
aI1
aI1
aI2
asS'itemsposy'
p11
(lp12
I288
aI288
aI289
aI290
aI289
aI290
aI556
aI165
aI165
asS'itemsposx'
p13
(lp14
I63
aI251
aI289
aI344
aI393
aI445
aI297
aI246
aI375
asS'itemcount'
p15
I9
sba(i__main__
template
p16
(dp17
g3
VC1\u000a
p18
sg5
(lp19
I33
aI71
aI14
aI42
aI215
aI251
aI284
aI316
asg7
(lp20
I108
aI109
aI224
aI224
aI224
aI223
aI224
aI223
asg9
(lp21
I1
aI2
aI1
aI0
aI1
aI1
aI1
aI1
asg11
(lp22
I119
aI120
aI233
aI233
aI232
aI232
aI233
aI235
asg13
(lp23
I57
aI117
aI31
aI156
aI238
aI263
aI306
aI343
asg15
I8
sba(i__main__
template
p24
(dp25
g3
VF1\u000a
p26
sg5
(lp27
I74
aI75
aI11
aI70
aI404
aI484
asg7
(lp28
I107
aI119
aI189
aI189
aI189
aI189
asg9
(lp29
I2
aI1
aI0
aI0
aI1
aI1
asg11
(lp30
I118
aI131
aI201
aI201
aI198
aI198
asg13
(lp31
I105
aI114
aI64
aI182
aI429
aI502
asg15
I6
sba.